Certificate:
    Data:
        Version: 3 (0x2)
        Serial Number:
            39:51:16:c1:3c:d5:3b:5c:04:77:64:1e:7b:7b:a7:24:c7:90:dc:8e
        Signature Algorithm: ecdsa-with-SHA256
        Issuer: C=KR, ST=Seoul, O=LG Electronics, OU=CMU, CN=root-ca.sinbak
        Validity
            Not Before: Jun 10 06:16:33 2021 GMT
            Not After : Jun 10 06:16:33 2022 GMT
        Subject: C=KR, ST=Seoul, O=LG Electronics, OU=CMU, CN=team1
        Subject Public Key Info:
            Public Key Algorithm: id-ecPublicKey
                Public-Key: (256 bit)
                pub:
                    04:68:c7:38:f6:e6:be:31:2b:ec:60:a7:f8:4d:d9:
                    3f:6e:c3:30:35:97:a0:82:13:6d:92:d0:64:09:a3:
                    45:6b:d8:1e:12:79:0d:d6:aa:f8:a5:c9:cc:b9:ee:
                    c6:90:f4:33:70:ca:13:d5:50:2b:5e:c2:4e:2c:8a:
                    3d:71:00:9c:3a
                ASN1 OID: prime256v1
                NIST CURVE: P-256
        X509v3 extensions:
            X509v3 Basic Constraints: 
                CA:FALSE
            X509v3 Subject Key Identifier: 
                A1:D4:70:04:A5:98:E5:E3:21:4F:2C:A9:E0:44:F0:CC:9C:21:2D:18
            X509v3 Authority Key Identifier: 
                keyid:71:97:DF:C3:AF:40:16:2E:DA:4B:47:43:16:5C:7D:96:56:B3:10:AC
                DirName:/C=KR/ST=Seoul/O=LG Electronics/OU=CMU/CN=root-ca.sinbak
                serial:7D:0E:40:64:43:D7:28:C0:55:B9:90:6C:08:B7:32:6C:9B:62:0F:29

            X509v3 Key Usage: 
                Digital Signature, Non Repudiation, Key Encipherment
            X509v3 Extended Key Usage: 
                TLS Web Server Authentication, TLS Web Client Authentication
            X509v3 Subject Alternative Name: 
                DNS:team1
            Authority Information Access: 
                CA Issuers - URI:http://root-ca.sinbak/root-ca.crt
                OCSP - URI:http://ocsp.sinbak:8080

            Netscape CA Revocation Url: 
                http://root-ca.sinbak/revoked.crl
    Signature Algorithm: ecdsa-with-SHA256
         30:45:02:21:00:9b:7b:1c:a2:8e:f9:15:bd:f5:bd:4f:a6:df:
         7c:a9:ba:52:f9:2b:d7:7c:10:13:af:d2:16:7d:6c:dd:96:12:
         ba:02:20:16:da:15:9b:05:64:23:a6:aa:b5:2b:18:cf:6f:ac:
         6b:6a:59:04:10:98:03:b5:42:d7:cd:c1:da:cf:56:61:55
-----BEGIN CERTIFICATE-----
MIIDVDCCAvqgAwIBAgIUOVEWwTzVO1wEd2Qee3unJMeQ3I4wCgYIKoZIzj0EAwIw
XTELMAkGA1UEBhMCS1IxDjAMBgNVBAgMBVNlb3VsMRcwFQYDVQQKDA5MRyBFbGVj
dHJvbmljczEMMAoGA1UECwwDQ01VMRcwFQYDVQQDDA5yb290LWNhLnNpbmJhazAe
Fw0yMTA2MTAwNjE2MzNaFw0yMjA2MTAwNjE2MzNaMFQxCzAJBgNVBAYTAktSMQ4w
DAYDVQQIDAVTZW91bDEXMBUGA1UECgwOTEcgRWxlY3Ryb25pY3MxDDAKBgNVBAsM
A0NNVTEOMAwGA1UEAwwFdGVhbTEwWTATBgcqhkjOPQIBBggqhkjOPQMBBwNCAARo
xzj25r4xK+xgp/hN2T9uwzA1l6CCE22S0GQJo0Vr2B4SeQ3Wqvilycy57saQ9DNw
yhPVUCtewk4sij1xAJw6o4IBnzCCAZswCQYDVR0TBAIwADAdBgNVHQ4EFgQUodRw
BKWY5eMhTyyp4ETwzJwhLRgwgZoGA1UdIwSBkjCBj4AUcZffw69AFi7aS0dDFlx9
llazEKyhYaRfMF0xCzAJBgNVBAYTAktSMQ4wDAYDVQQIDAVTZW91bDEXMBUGA1UE
CgwOTEcgRWxlY3Ryb25pY3MxDDAKBgNVBAsMA0NNVTEXMBUGA1UEAwwOcm9vdC1j
YS5zaW5iYWuCFH0OQGRD1yjAVbmQbAi3MmybYg8pMAsGA1UdDwQEAwIF4DAdBgNV
HSUEFjAUBggrBgEFBQcDAQYIKwYBBQUHAwIwEAYDVR0RBAkwB4IFdGVhbTEwYgYI
KwYBBQUHAQEEVjBUMC0GCCsGAQUFBzAChiFodHRwOi8vcm9vdC1jYS5zaW5iYWsv
cm9vdC1jYS5jcnQwIwYIKwYBBQUHMAGGF2h0dHA6Ly9vY3NwLnNpbmJhazo4MDgw
MDAGCWCGSAGG+EIBBAQjFiFodHRwOi8vcm9vdC1jYS5zaW5iYWsvcmV2b2tlZC5j
cmwwCgYIKoZIzj0EAwIDSAAwRQIhAJt7HKKO+RW99b1Ppt98qbpS+SvXfBATr9IW
fWzdlhK6AiAW2hWbBWQjpqq1KxjPb6xralkEEJgDtULXzcHaz1ZhVQ==
-----END CERTIFICATE-----
